; Function Attrs: mustprogress nounwind uwtable
define void @_ZN6LibRaw16free_omp_buffersEPPci(ptr noundef nonnull readonly align 8 captures(none) dereferenceable(767680) %0, ptr noundef %1, i32 noundef %2) local_unnamed_addr #10 align 2 {
  %4 = icmp sgt i32 %2, 0
  br i1 %4, label %.lr.ph, label %._crit_edge

.lr.ph:                                           ; preds = %3
  %5 = getelementptr inbounds nuw i8, ptr %0, i64 767416
  %wide.trip.count = zext nneg i32 %2 to i64
  br label %15

._crit_edge:                                      ; preds = %26, %3
  %.not.i.i.i = icmp eq ptr %1, null
  br i1 %.not.i.i.i, label %_ZN6LibRaw4freeEPv.exit, label %.preheader.i.i.i

.preheader.i.i.i:                                 ; preds = %._crit_edge
  %6 = getelementptr inbounds nuw i8, ptr %0, i64 767416
  %7 = load ptr, ptr %6, align 8, !tbaa !16
  br label %9

8:                                                ; preds = %9
  %indvars.iv.next.i.i.i = add nuw nsw i64 %indvars.iv.i.i.i, 1
  %exitcond.not.i.i.i = icmp eq i64 %indvars.iv.next.i.i.i, 512
  br i1 %exitcond.not.i.i.i, label %_ZN6LibRaw4freeEPv.exit, label %9, !llvm.loop !22

9:                                                ; preds = %8, %.preheader.i.i.i
  %indvars.iv.i.i.i = phi i64 [ 0, %.preheader.i.i.i ], [ %indvars.iv.next.i.i.i, %8 ]
  %10 = getelementptr inbounds nuw ptr, ptr %7, i64 %indvars.iv.i.i.i
  %11 = load ptr, ptr %10, align 8, !tbaa !19
  %12 = icmp eq ptr %11, %1
  br i1 %12, label %13, label %8

13:                                               ; preds = %9
  %14 = getelementptr inbounds nuw ptr, ptr %7, i64 %indvars.iv.i.i.i
  store ptr null, ptr %14, align 8, !tbaa !19
  br label %_ZN6LibRaw4freeEPv.exit

_ZN6LibRaw4freeEPv.exit:                          ; preds = %8, %._crit_edge, %13
  tail call void @free(ptr noundef %1) #30
  ret void

15:                                               ; preds = %.lr.ph, %26
  %indvars.iv = phi i64 [ 0, %.lr.ph ], [ %indvars.iv.next, %26 ]
  %16 = getelementptr inbounds nuw ptr, ptr %1, i64 %indvars.iv
  %17 = load ptr, ptr %16, align 8, !tbaa !11
  %.not = icmp eq ptr %17, null
  br i1 %.not, label %26, label %.preheader.i.i.i10

.preheader.i.i.i10:                               ; preds = %15
  %18 = load ptr, ptr %5, align 8, !tbaa !16
  br label %20

19:                                               ; preds = %20
  %indvars.iv.next.i.i.i12 = add nuw nsw i64 %indvars.iv.i.i.i11, 1
  %exitcond.not.i.i.i13 = icmp eq i64 %indvars.iv.next.i.i.i12, 512
  br i1 %exitcond.not.i.i.i13, label %_ZN6LibRaw4freeEPv.exit14, label %20, !llvm.loop !22

20:                                               ; preds = %19, %.preheader.i.i.i10
  %indvars.iv.i.i.i11 = phi i64 [ 0, %.preheader.i.i.i10 ], [ %indvars.iv.next.i.i.i12, %19 ]
  %21 = getelementptr inbounds nuw ptr, ptr %18, i64 %indvars.iv.i.i.i11
  %22 = load ptr, ptr %21, align 8, !tbaa !19
  %23 = icmp eq ptr %22, %17
  br i1 %23, label %24, label %19

24:                                               ; preds = %20
  %25 = getelementptr inbounds nuw ptr, ptr %18, i64 %indvars.iv.i.i.i11
  store ptr null, ptr %25, align 8, !tbaa !19
  br label %_ZN6LibRaw4freeEPv.exit14

_ZN6LibRaw4freeEPv.exit14:                        ; preds = %19, %24
  tail call void @free(ptr noundef nonnull %17) #30
  br label %26

26:                                               ; preds = %15, %_ZN6LibRaw4freeEPv.exit14
  %indvars.iv.next = add nuw nsw i64 %indvars.iv, 1
  %exitcond.not = icmp eq i64 %indvars.iv.next, %wide.trip.count
  br i1 %exitcond.not, label %._crit_edge, label %15, !llvm.loop !159
}